Certificate:
    Data:
        Version: 3 (0x2)
        Serial Number: 1 (0x1)
    Signature Algorithm: sha1WithRSAEncryption
        Issuer: DC=org, DC=simple, O=Simple Inc, OU=Simple Signing CA, CN=Simple Signing CA
        Validity
            Not Before: Dec  2 23:11:35 2023 GMT
            Not After : Dec  1 23:11:35 2025 GMT
        Subject: DC=org, DC=simple, O=Simple Inc, CN=Fred Flintstone
        Subject Public Key Info:
            Public Key Algorithm: rsaEncryption
                Public-Key: (2048 bit)
                Modulus:
                    00:d8:b0:8b:39:ec:11:dd:e7:d3:6b:45:e5:6d:a5:
                    29:a6:6a:81:87:42:d3:e5:9b:a2:64:92:e9:9d:b2:
                    c3:9c:a0:de:12:49:88:62:7b:e2:06:20:02:0d:10:
                    30:c3:52:7f:0a:5b:17:ea:c1:d4:10:1e:76:2e:a5:
                    cf:f9:6f:f8:6c:f2:b2:fb:30:67:c6:97:61:91:39:
                    78:c9:b1:60:9d:4d:e0:84:3f:24:57:99:a4:3a:aa:
                    b0:7b:20:e6:3f:ba:43:24:34:c7:f3:ed:5b:8e:9b:
                    f0:07:0a:07:cf:10:17:e6:24:14:8c:45:24:b9:e7:
                    f3:73:80:45:a6:8b:64:b2:68:d0:94:26:cb:78:6d:
                    14:6b:98:ad:6f:f6:2c:b1:8d:27:d3:dd:cf:f4:20:
                    1e:24:a4:3b:9b:d6:ec:b5:ce:67:7a:d0:92:72:fe:
                    88:86:60:32:ed:72:e7:17:77:f2:87:9a:9b:3b:9d:
                    7b:fd:3a:58:92:14:16:94:b0:0d:56:d1:24:86:3b:
                    1d:3b:2b:95:52:75:a8:d5:65:76:51:0a:a8:04:8e:
                    fc:a1:9a:ea:ad:35:2d:7e:d1:aa:dd:ad:4e:3e:b5:
                    54:ce:40:94:fd:61:fb:c6:fa:55:d6:e3:81:b9:f1:
                    5b:85:f8:1a:79:7b:fc:c4:43:59:85:45:79:43:14:
                    20:b7
                Exponent: 65537 (0x10001)
        X509v3 extensions:
            X509v3 Key Usage: critical
                Digital Signature, Key Encipherment
            X509v3 Basic Constraints: 
                CA:FALSE
            X509v3 Extended Key Usage: 
                E-mail Protection, TLS Web Client Authentication
            X509v3 Subject Key Identifier: 
                C6:53:D8:22:0C:8D:D2:AC:6C:7A:07:17:A9:E7:68:42:B6:FE:58:96
            X509v3 Authority Key Identifier: 
                keyid:39:EB:B6:D2:CB:B6:CA:41:30:99:19:DA:29:A7:D6:B6:1C:FF:C2:82

            X509v3 Subject Alternative Name: 
                email:fred@simple.org
    Signature Algorithm: sha1WithRSAEncryption
         46:54:e2:4b:56:33:87:f1:19:dc:bb:98:8b:ef:a5:80:a8:b5:
         b1:91:1d:3c:27:17:9e:11:7e:af:c6:e4:65:01:21:11:af:0f:
         1c:52:b1:3a:79:b0:51:48:f4:e1:13:34:54:8c:dd:be:f7:a1:
         50:cf:7f:e6:a7:b8:d8:bf:4c:33:cc:40:bf:ba:98:e8:86:ac:
         df:2e:f8:fc:3c:27:c8:e2:42:be:e9:47:ba:6e:c1:2f:34:2f:
         3c:90:de:76:98:c3:59:80:15:0d:36:ed:ef:b8:20:75:97:ae:
         de:3f:88:9b:b9:ec:60:3b:75:fc:52:1e:be:06:a3:4b:91:02:
         9d:47:bf:00:c8:ab:ee:a2:44:13:21:eb:00:a1:fd:1e:87:da:
         aa:b8:8a:42:e5:83:7f:30:d8:cc:14:aa:26:b9:1c:86:54:38:
         68:8f:63:0b:e8:8c:fa:82:c6:2d:9d:0e:46:7b:3a:e9:df:bc:
         7f:55:4b:87:d7:69:8b:51:67:0d:8c:bb:cd:66:f1:bf:de:b4:
         7e:41:98:b2:17:da:94:4c:2b:2b:d1:77:dc:62:76:de:08:af:
         b4:ae:f0:1f:a6:28:11:11:06:eb:ca:75:b7:6d:cc:33:59:15:
         21:ca:e7:34:cc:e8:fb:7b:3a:77:ec:a2:a7:fa:e1:9c:8e:9e:
         be:1b:7d:f5
-----BEGIN CERTIFICATE-----
MIID6zCCAtOgAwIBAgIBATANBgkqhkiG9w0BAQUFADB6MRMwEQYKCZImiZPyLGQB
GRYDb3JnMRYwFAYKCZImiZPyLGQBGRYGc2ltcGxlMRMwEQYDVQQKDApTaW1wbGUg
SW5jMRowGAYDVQQLDBFTaW1wbGUgU2lnbmluZyBDQTEaMBgGA1UEAwwRU2ltcGxl
IFNpZ25pbmcgQ0EwHhcNMjMxMjAyMjMxMTM1WhcNMjUxMjAxMjMxMTM1WjBcMRMw
EQYKCZImiZPyLGQBGRYDb3JnMRYwFAYKCZImiZPyLGQBGRYGc2ltcGxlMRMwEQYD
VQQKDApTaW1wbGUgSW5jMRgwFgYDVQQDDA9GcmVkIEZsaW50c3RvbmUwggEiMA0G
CSqGSIb3DQEBAQUAA4IBDwAwggEKAoIBAQDYsIs57BHd59NrReVtpSmmaoGHQtPl
m6JkkumdssOcoN4SSYhie+IGIAINEDDDUn8KWxfqwdQQHnYupc/5b/hs8rL7MGfG
l2GROXjJsWCdTeCEPyRXmaQ6qrB7IOY/ukMkNMfz7VuOm/AHCgfPEBfmJBSMRSS5
5/NzgEWmi2SyaNCUJst4bRRrmK1v9iyxjSfT3c/0IB4kpDub1uy1zmd60JJy/oiG
YDLtcucXd/KHmps7nXv9OliSFBaUsA1W0SSGOx07K5VSdajVZXZRCqgEjvyhmuqt
NS1+0ardrU4+tVTOQJT9YfvG+lXW44G58VuF+Bp5e/zEQ1mFRXlDFCC3AgMBAAGj
gZkwgZYwDgYDVR0PAQH/BAQDAgWgMAkGA1UdEwQCMAAwHQYDVR0lBBYwFAYIKwYB
BQUHAwQGCCsGAQUFBwMCMB0GA1UdDgQWBBTGU9giDI3SrGx6Bxep52hCtv5YljAf
BgNVHSMEGDAWgBQ567bSy7bKQTCZGdopp9a2HP/CgjAaBgNVHREEEzARgQ9mcmVk
QHNpbXBsZS5vcmcwDQYJKoZIhvcNAQEFBQADggEBAEZU4ktWM4fxGdy7mIvvpYCo
tbGRHTwnF54Rfq/G5GUBIRGvDxxSsTp5sFFI9OETNFSM3b73oVDPf+anuNi/TDPM
QL+6mOiGrN8u+Pw8J8jiQr7pR7puwS80LzyQ3naYw1mAFQ027e+4IHWXrt4/iJu5
7GA7dfxSHr4Go0uRAp1HvwDIq+6iRBMh6wCh/R6H2qq4ikLlg38w2MwUqia5HIZU
OGiPYwvojPqCxi2dDkZ7OunfvH9VS4fXaYtRZw2Mu81m8b/etH5BmLIX2pRMKyvR
d9xidt4Ir7Su8B+mKBERBuvKdbdtzDNZFSHK5zTM6Pt7Onfsoqf64ZyOnr4bffU=
-----END CERTIFICATE-----
