Certificate:
    Data:
        Version: 3 (0x2)
        Serial Number: 2 (0x2)
    Signature Algorithm: sha1WithRSAEncryption
        Issuer: DC=org, DC=simple, O=Simple Inc, OU=Simple Root CA, CN=Simple Root CA
        Validity
            Not Before: Dec  2 23:02:13 2023 GMT
            Not After : Dec  1 23:02:13 2033 GMT
        Subject: DC=org, DC=simple, O=Simple Inc, OU=Simple Signing CA, CN=Simple Signing CA
        Subject Public Key Info:
            Public Key Algorithm: rsaEncryption
                Public-Key: (2048 bit)
                Modulus:
                    00:c6:c6:8c:76:55:d7:49:dc:73:34:17:fe:b3:e2:
                    3f:d3:07:55:97:f4:20:9b:9b:53:2d:d3:2f:ed:86:
                    ce:8b:1d:1c:11:03:17:c6:eb:8a:06:86:63:ba:b5:
                    5f:7f:fc:42:48:37:d5:9b:90:83:92:1b:05:9c:51:
                    4b:64:93:ba:29:4b:97:ca:de:da:d9:d7:63:72:20:
                    16:cb:cb:94:38:04:b9:69:ba:2c:f5:e7:e2:ab:40:
                    00:8e:bb:c0:b0:c6:b4:44:80:bc:d7:fc:30:98:f5:
                    91:71:69:34:f5:91:77:a6:75:6b:d1:48:a2:3a:a0:
                    a7:c7:12:b5:71:a9:9d:5a:93:03:43:73:ab:92:7e:
                    65:57:06:30:1b:15:cf:35:1d:be:fd:bc:f4:b0:6e:
                    1f:6a:f7:fb:92:b2:17:53:bb:1a:0b:bf:82:7b:ac:
                    8b:73:b3:77:c6:9c:50:cc:c0:2f:70:00:e7:31:a1:
                    1c:a9:71:dc:ef:2d:32:ef:12:b9:c3:5e:63:57:06:
                    3b:07:98:5d:40:75:28:ee:d1:6e:a6:5c:9c:a6:7c:
                    52:52:b6:3c:82:fc:d6:b8:35:6d:b9:31:ee:b3:4c:
                    31:27:b7:cf:dc:83:2e:41:b2:2a:e6:fa:ef:73:9f:
                    06:fb:24:35:69:ba:83:47:f1:a7:57:e0:20:33:68:
                    80:33
                Exponent: 65537 (0x10001)
        X509v3 extensions:
            X509v3 Key Usage: critical
                Certificate Sign, CRL Sign
            X509v3 Basic Constraints: critical
                CA:TRUE, pathlen:0
            X509v3 Subject Key Identifier: 
                39:EB:B6:D2:CB:B6:CA:41:30:99:19:DA:29:A7:D6:B6:1C:FF:C2:82
            X509v3 Authority Key Identifier: 
                keyid:94:32:F8:D8:74:B3:AC:40:2A:01:12:29:44:12:02:2E:85:C3:22:69

    Signature Algorithm: sha1WithRSAEncryption
         6c:f8:a9:56:35:10:92:61:8a:dc:23:de:8c:ad:05:d7:65:10:
         62:17:c1:45:ea:e2:56:59:06:e5:30:58:0f:01:c3:39:14:c3:
         0a:8a:5e:5c:ae:1a:01:cf:eb:25:b8:9a:48:c9:98:9b:dd:c1:
         73:bf:5a:62:ab:1d:64:25:ff:5f:47:41:d4:0c:83:1e:4e:c8:
         f5:2e:11:c0:22:77:8b:5d:db:06:00:57:f9:06:66:79:1d:af:
         a7:5f:7a:ca:06:5a:4a:6e:9e:66:51:d7:98:d4:81:93:78:22:
         de:3e:b0:3d:86:18:dd:b1:88:32:c0:81:2a:79:f3:18:ec:87:
         e7:02:52:8b:a7:84:e5:16:c4:fd:de:b2:0a:16:0e:6d:ce:52:
         fe:2a:0d:62:61:f9:11:15:0a:12:16:c7:1e:2f:38:82:c7:11:
         b4:9c:f1:0a:d7:e9:17:25:cc:e3:5d:94:fb:a0:c1:61:6c:fb:
         20:5b:34:3f:41:ce:2d:f2:52:00:fb:b9:f2:41:f1:e4:c2:0f:
         fa:5d:3a:37:bc:34:b0:a0:be:b6:fd:fe:ad:18:e1:43:8c:3f:
         14:bb:3e:d5:d4:51:c3:f7:4a:d5:7e:61:69:2a:ca:5c:a5:c3:
         7b:24:65:18:0b:6d:aa:42:c1:01:b4:4c:f2:73:d3:f9:98:a1:
         e9:d6:0e:e2
-----BEGIN CERTIFICATE-----
MIIDzzCCAregAwIBAgIBAjANBgkqhkiG9w0BAQUFADB0MRMwEQYKCZImiZPyLGQB
GRYDb3JnMRYwFAYKCZImiZPyLGQBGRYGc2ltcGxlMRMwEQYDVQQKDApTaW1wbGUg
SW5jMRcwFQYDVQQLDA5TaW1wbGUgUm9vdCBDQTEXMBUGA1UEAwwOU2ltcGxlIFJv
b3QgQ0EwHhcNMjMxMjAyMjMwMjEzWhcNMzMxMjAxMjMwMjEzWjB6MRMwEQYKCZIm
iZPyLGQBGRYDb3JnMRYwFAYKCZImiZPyLGQBGRYGc2ltcGxlMRMwEQYDVQQKDApT
aW1wbGUgSW5jMRowGAYDVQQLDBFTaW1wbGUgU2lnbmluZyBDQTEaMBgGA1UEAwwR
U2ltcGxlIFNpZ25pbmcgQ0EwggEiMA0GCSqGSIb3DQEBAQUAA4IBDwAwggEKAoIB
AQDGxox2VddJ3HM0F/6z4j/TB1WX9CCbm1Mt0y/ths6LHRwRAxfG64oGhmO6tV9/
/EJIN9WbkIOSGwWcUUtkk7opS5fK3trZ12NyIBbLy5Q4BLlpuiz15+KrQACOu8Cw
xrREgLzX/DCY9ZFxaTT1kXemdWvRSKI6oKfHErVxqZ1akwNDc6uSfmVXBjAbFc81
Hb79vPSwbh9q9/uSshdTuxoLv4J7rItzs3fGnFDMwC9wAOcxoRypcdzvLTLvErnD
XmNXBjsHmF1AdSju0W6mXJymfFJStjyC/Na4NW25Me6zTDEnt8/cgy5Bsirm+u9z
nwb7JDVpuoNH8adX4CAzaIAzAgMBAAGjZjBkMA4GA1UdDwEB/wQEAwIBBjASBgNV
HRMBAf8ECDAGAQH/AgEAMB0GA1UdDgQWBBQ567bSy7bKQTCZGdopp9a2HP/CgjAf
BgNVHSMEGDAWgBSUMvjYdLOsQCoBEilEEgIuhcMiaTANBgkqhkiG9w0BAQUFAAOC
AQEAbPipVjUQkmGK3CPejK0F12UQYhfBReriVlkG5TBYDwHDORTDCopeXK4aAc/r
JbiaSMmYm93Bc79aYqsdZCX/X0dB1AyDHk7I9S4RwCJ3i13bBgBX+QZmeR2vp196
ygZaSm6eZlHXmNSBk3gi3j6wPYYY3bGIMsCBKnnzGOyH5wJSi6eE5RbE/d6yChYO
bc5S/ioNYmH5ERUKEhbHHi84gscRtJzxCtfpFyXM412U+6DBYWz7IFs0P0HOLfJS
APu58kHx5MIP+l06N7w0sKC+tv3+rRjhQ4w/FLs+1dRRw/dK1X5haSrKXKXDeyRl
GAttqkLBAbRM8nPT+Zih6dYO4g==
-----END CERTIFICATE-----
